target datalayout = "e-m:e-p270:32:32-p271:32:32-p272:64:64-i64:64-i128:128-f80:128-n8:16:32:64-S128"
target triple = "x86_64-pc-linux-gnu"

%struct.sentinelRedisInstance = type { i32, ptr, ptr, i64, ptr, ptr, i64, i64, i64, i64, i64, i64, i64, i64, i64, ptr, i32, i64, i64, ptr, ptr, i32, i32, ptr, ptr, i64, i32, i32, i64, ptr, ptr, i32, i32, i64, ptr, i64, i64, i32, i64, i64, i64, i64, ptr, ptr, ptr, ptr }
%struct.instanceLink = type { i32, i32, i32, ptr, ptr, i64, i64, i64, i64, i64, i64, i64, i64 }

@.str.54 = private unnamed_addr constant [3 x i8] c"%@\00", align 1
@.str.437 = private unnamed_addr constant [26 x i8] c"+failover-end-for-timeout\00", align 1
@.str.438 = private unnamed_addr constant [14 x i8] c"+failover-end\00", align 1
@.str.439 = private unnamed_addr constant [22 x i8] c"+slave-reconf-sent-be\00", align 1

; Function Attrs: nounwind uwtable
define dso_local void @sentinelFailoverDetectEnd(ptr noundef %0) #0 {
  %2 = alloca ptr, align 8
  %3 = alloca i32, align 4
  %4 = alloca i32, align 4
  %5 = alloca ptr, align 8
  %6 = alloca ptr, align 8
  %7 = alloca i64, align 8
  %8 = alloca i32, align 4
  %9 = alloca ptr, align 8
  %10 = alloca ptr, align 8
  %11 = alloca ptr, align 8
  %12 = alloca ptr, align 8
  %13 = alloca i32, align 4
  store ptr %0, ptr %2, align 8, !tbaa !11
  call void @llvm.lifetime.start.p0(i64 4, ptr %3) #16
  store i32 0, ptr %3, align 4, !tbaa !82
  call void @llvm.lifetime.start.p0(i64 4, ptr %4) #16
  store i32 0, ptr %4, align 4, !tbaa !82
  call void @llvm.lifetime.start.p0(i64 8, ptr %5) #16
  call void @llvm.lifetime.start.p0(i64 8, ptr %6) #16
  call void @llvm.lifetime.start.p0(i64 8, ptr %7) #16
  %14 = call i64 @mstime()
  %15 = load ptr, ptr %2, align 8, !tbaa !11
  %16 = getelementptr inbounds nuw %struct.sentinelRedisInstance, ptr %15, i32 0, i32 38
  %17 = load i64, ptr %16, align 8, !tbaa !194
  %18 = sub nsw i64 %14, %17
  store i64 %18, ptr %7, align 8, !tbaa !119
  %19 = load ptr, ptr %2, align 8, !tbaa !11
  %20 = getelementptr inbounds nuw %struct.sentinelRedisInstance, ptr %19, i32 0, i32 42
  %21 = load ptr, ptr %20, align 8, !tbaa !36
  %22 = icmp eq ptr %21, null
  br i1 %22, label %31, label %23

23:                                               ; preds = %1
  %24 = load ptr, ptr %2, align 8, !tbaa !11
  %25 = getelementptr inbounds nuw %struct.sentinelRedisInstance, ptr %24, i32 0, i32 42
  %26 = load ptr, ptr %25, align 8, !tbaa !36
  %27 = getelementptr inbounds nuw %struct.sentinelRedisInstance, ptr %26, i32 0, i32 0
  %28 = load i32, ptr %27, align 8, !tbaa !34
  %29 = and i32 %28, 8
  %30 = icmp ne i32 %29, 0
  br i1 %30, label %31, label %32

31:                                               ; preds = %23, %1
  store i32 1, ptr %8, align 4
  br label %134

32:                                               ; preds = %23
  %33 = load ptr, ptr %2, align 8, !tbaa !11
  %34 = getelementptr inbounds nuw %struct.sentinelRedisInstance, ptr %33, i32 0, i32 20
  %35 = load ptr, ptr %34, align 8, !tbaa !21
  %36 = call ptr @dictGetIterator(ptr noundef %35)
  store ptr %36, ptr %5, align 8, !tbaa !87
  br label %37

37:                                               ; preds = %62, %60, %32
  %38 = load ptr, ptr %5, align 8, !tbaa !87
  %39 = call ptr @dictNext(ptr noundef %38)
  store ptr %39, ptr %6, align 8, !tbaa !89
  %40 = icmp ne ptr %39, null
  br i1 %40, label %41, label %63

41:                                               ; preds = %37
  call void @llvm.lifetime.start.p0(i64 8, ptr %9) #16
  %42 = load ptr, ptr %6, align 8, !tbaa !89
  %43 = call ptr @dictGetVal(ptr noundef %42)
  store ptr %43, ptr %9, align 8, !tbaa !11
  %44 = load ptr, ptr %9, align 8, !tbaa !11
  %45 = getelementptr inbounds nuw %struct.sentinelRedisInstance, ptr %44, i32 0, i32 0
  %46 = load i32, ptr %45, align 8, !tbaa !34
  %47 = and i32 %46, 1152
  %48 = icmp ne i32 %47, 0
  br i1 %48, label %49, label %50

49:                                               ; preds = %41
  store i32 2, ptr %8, align 4
  br label %60, !llvm.loop !324

50:                                               ; preds = %41
  %51 = load ptr, ptr %9, align 8, !tbaa !11
  %52 = getelementptr inbounds nuw %struct.sentinelRedisInstance, ptr %51, i32 0, i32 0
  %53 = load i32, ptr %52, align 8, !tbaa !34
  %54 = and i32 %53, 8
  %55 = icmp ne i32 %54, 0
  br i1 %55, label %56, label %57

56:                                               ; preds = %50
  store i32 2, ptr %8, align 4
  br label %60, !llvm.loop !324

57:                                               ; preds = %50
  %58 = load i32, ptr %3, align 4, !tbaa !82
  %59 = add nsw i32 %58, 1
  store i32 %59, ptr %3, align 4, !tbaa !82
  store i32 0, ptr %8, align 4
  br label %60

60:                                               ; preds = %57, %56, %49
  call void @llvm.lifetime.end.p0(i64 8, ptr %9) #16
  %61 = load i32, ptr %8, align 4
  switch i32 %61, label %137 [
    i32 0, label %62
    i32 2, label %37
  ]

62:                                               ; preds = %60
  br label %37, !llvm.loop !324

63:                                               ; preds = %37
  %64 = load ptr, ptr %5, align 8, !tbaa !87
  call void @dictReleaseIterator(ptr noundef %64)
  %65 = load i64, ptr %7, align 8, !tbaa !119
  %66 = load ptr, ptr %2, align 8, !tbaa !11
  %67 = getelementptr inbounds nuw %struct.sentinelRedisInstance, ptr %66, i32 0, i32 40
  %68 = load i64, ptr %67, align 8, !tbaa !196
  %69 = icmp sgt i64 %65, %68
  br i1 %69, label %70, label %72

70:                                               ; preds = %63
  store i32 0, ptr %3, align 4, !tbaa !82
  store i32 1, ptr %4, align 4, !tbaa !82
  %71 = load ptr, ptr %2, align 8, !tbaa !11
  call void (i32, ptr, ptr, ptr, ...) @sentinelEvent(i32 noundef 3, ptr noundef @.str.437, ptr noundef %71, ptr noundef @.str.54)
  br label %72

72:                                               ; preds = %70, %63
  %73 = load i32, ptr %3, align 4, !tbaa !82
  %74 = icmp eq i32 %73, 0
  br i1 %74, label %75, label %82

75:                                               ; preds = %72
  %76 = load ptr, ptr %2, align 8, !tbaa !11
  call void (i32, ptr, ptr, ptr, ...) @sentinelEvent(i32 noundef 3, ptr noundef @.str.438, ptr noundef %76, ptr noundef @.str.54)
  %77 = load ptr, ptr %2, align 8, !tbaa !11
  %78 = getelementptr inbounds nuw %struct.sentinelRedisInstance, ptr %77, i32 0, i32 37
  store i32 6, ptr %78, align 8, !tbaa !193
  %79 = call i64 @mstime()
  %80 = load ptr, ptr %2, align 8, !tbaa !11
  %81 = getelementptr inbounds nuw %struct.sentinelRedisInstance, ptr %80, i32 0, i32 38
  store i64 %79, ptr %81, align 8, !tbaa !194
  br label %82

82:                                               ; preds = %75, %72
  %83 = load i32, ptr %4, align 4, !tbaa !82
  %84 = icmp ne i32 %83, 0
  br i1 %84, label %85, label %133

85:                                               ; preds = %82
  call void @llvm.lifetime.start.p0(i64 8, ptr %10) #16
  call void @llvm.lifetime.start.p0(i64 8, ptr %11) #16
  %86 = load ptr, ptr %2, align 8, !tbaa !11
  %87 = getelementptr inbounds nuw %struct.sentinelRedisInstance, ptr %86, i32 0, i32 20
  %88 = load ptr, ptr %87, align 8, !tbaa !21
  %89 = call ptr @dictGetIterator(ptr noundef %88)
  store ptr %89, ptr %10, align 8, !tbaa !87
  br label %90

90:                                               ; preds = %130, %128, %85
  %91 = load ptr, ptr %10, align 8, !tbaa !87
  %92 = call ptr @dictNext(ptr noundef %91)
  store ptr %92, ptr %11, align 8, !tbaa !89
  %93 = icmp ne ptr %92, null
  br i1 %93, label %94, label %131

94:                                               ; preds = %90
  call void @llvm.lifetime.start.p0(i64 8, ptr %12) #16
  %95 = load ptr, ptr %11, align 8, !tbaa !89
  %96 = call ptr @dictGetVal(ptr noundef %95)
  store ptr %96, ptr %12, align 8, !tbaa !11
  call void @llvm.lifetime.start.p0(i64 4, ptr %13) #16
  %97 = load ptr, ptr %12, align 8, !tbaa !11
  %98 = getelementptr inbounds nuw %struct.sentinelRedisInstance, ptr %97, i32 0, i32 0
  %99 = load i32, ptr %98, align 8, !tbaa !34
  %100 = and i32 %99, 1408
  %101 = icmp ne i32 %100, 0
  br i1 %101, label %102, label %103

102:                                              ; preds = %94
  store i32 4, ptr %8, align 4
  br label %128, !llvm.loop !325

103:                                              ; preds = %94
  %104 = load ptr, ptr %12, align 8, !tbaa !11
  %105 = getelementptr inbounds nuw %struct.sentinelRedisInstance, ptr %104, i32 0, i32 5
  %106 = load ptr, ptr %105, align 8, !tbaa !22
  %107 = getelementptr inbounds nuw %struct.instanceLink, ptr %106, i32 0, i32 1
  %108 = load i32, ptr %107, align 4, !tbaa !133
  %109 = icmp ne i32 %108, 0
  br i1 %109, label %110, label %111

110:                                              ; preds = %103
  store i32 4, ptr %8, align 4
  br label %128, !llvm.loop !325

111:                                              ; preds = %103
  %112 = load ptr, ptr %12, align 8, !tbaa !11
  %113 = load ptr, ptr %2, align 8, !tbaa !11
  %114 = getelementptr inbounds nuw %struct.sentinelRedisInstance, ptr %113, i32 0, i32 42
  %115 = load ptr, ptr %114, align 8, !tbaa !36
  %116 = getelementptr inbounds nuw %struct.sentinelRedisInstance, ptr %115, i32 0, i32 4
  %117 = load ptr, ptr %116, align 8, !tbaa !32
  %118 = call i32 @sentinelSendSlaveOf(ptr noundef %112, ptr noundef %117)
  store i32 %118, ptr %13, align 4, !tbaa !82
  %119 = load i32, ptr %13, align 4, !tbaa !82
  %120 = icmp eq i32 %119, 0
  br i1 %120, label %121, label %127

121:                                              ; preds = %111
  %122 = load ptr, ptr %12, align 8, !tbaa !11
  call void (i32, ptr, ptr, ptr, ...) @sentinelEvent(i32 noundef 2, ptr noundef @.str.439, ptr noundef %122, ptr noundef @.str.54)
  %123 = load ptr, ptr %12, align 8, !tbaa !11
  %124 = getelementptr inbounds nuw %struct.sentinelRedisInstance, ptr %123, i32 0, i32 0
  %125 = load i32, ptr %124, align 8, !tbaa !34
  %126 = or i32 %125, 256
  store i32 %126, ptr %124, align 8, !tbaa !34
  br label %127

127:                                              ; preds = %121, %111
  store i32 0, ptr %8, align 4
  br label %128

128:                                              ; preds = %127, %110, %102
  call void @llvm.lifetime.end.p0(i64 4, ptr %13) #16
  call void @llvm.lifetime.end.p0(i64 8, ptr %12) #16
  %129 = load i32, ptr %8, align 4
  switch i32 %129, label %137 [
    i32 0, label %130
    i32 4, label %90
  ]

130:                                              ; preds = %128
  br label %90, !llvm.loop !325

131:                                              ; preds = %90
  %132 = load ptr, ptr %10, align 8, !tbaa !87
  call void @dictReleaseIterator(ptr noundef %132)
  call void @llvm.lifetime.end.p0(i64 8, ptr %11) #16
  call void @llvm.lifetime.end.p0(i64 8, ptr %10) #16
  br label %133

133:                                              ; preds = %131, %82
  store i32 0, ptr %8, align 4
  br label %134

134:                                              ; preds = %133, %31
  call void @llvm.lifetime.end.p0(i64 8, ptr %7) #16
  call void @llvm.lifetime.end.p0(i64 8, ptr %6) #16
  call void @llvm.lifetime.end.p0(i64 8, ptr %5) #16
  call void @llvm.lifetime.end.p0(i64 4, ptr %4) #16
  call void @llvm.lifetime.end.p0(i64 4, ptr %3) #16
  %135 = load i32, ptr %8, align 4
  switch i32 %135, label %137 [
    i32 0, label %136
    i32 1, label %136
  ]

136:                                              ; preds = %134, %134
  ret void

137:                                              ; preds = %134, %128, %60
  unreachable
}