; Function Attrs: nounwind uwtable
define dso_local void @sentinelFailoverDetectEnd(ptr noundef captures(address_is_null) %0) local_unnamed_addr #0 {
  %2 = tail call i64 @mstime() #30
  %3 = getelementptr inbounds nuw i8, ptr %0, i64 280
  %4 = load i64, ptr %3, align 8, !tbaa !243
  %5 = sub nsw i64 %2, %4
  %6 = getelementptr inbounds nuw i8, ptr %0, i64 312
  %7 = load ptr, ptr %6, align 8, !tbaa !36
  %8 = icmp eq ptr %7, null
  br i1 %8, label %.thread41, label %9

9:                                                ; preds = %1
  %10 = load i32, ptr %7, align 8, !tbaa !34
  %11 = and i32 %10, 8
  %.not = icmp eq i32 %11, 0
  br i1 %.not, label %12, label %.thread41

12:                                               ; preds = %9
  %13 = getelementptr inbounds nuw i8, ptr %0, i64 160
  %14 = load ptr, ptr %13, align 8, !tbaa !18
  %15 = tail call ptr @dictGetIterator(ptr noundef %14) #30
  %16 = tail call ptr @dictNext(ptr noundef %15) #30
  %.not3242 = icmp eq ptr %16, null
  br i1 %.not3242, label %._crit_edge.thread, label %.lr.ph

.lr.ph:                                           ; preds = %12, %.lr.ph
  %17 = phi ptr [ %22, %.lr.ph ], [ %16, %12 ]
  %.043 = phi i32 [ %.1, %.lr.ph ], [ 0, %12 ]
  %18 = tail call ptr @dictGetVal(ptr noundef nonnull %17) #30
  %19 = load i32, ptr %18, align 8, !tbaa !34
  %20 = and i32 %19, 1160
  %or.cond = icmp eq i32 %20, 0
  %21 = zext i1 %or.cond to i32
  %.1 = add nuw nsw i32 %.043, %21
  %22 = tail call ptr @dictNext(ptr noundef %15) #30
  %.not32 = icmp eq ptr %22, null
  br i1 %.not32, label %._crit_edge, label %.lr.ph

._crit_edge:                                      ; preds = %.lr.ph
  tail call void @dictReleaseIterator(ptr noundef %15) #30
  %23 = getelementptr inbounds nuw i8, ptr %0, i64 296
  %24 = load i64, ptr %23, align 8, !tbaa !164
  %.not34 = icmp sgt i64 %5, %24
  br i1 %.not34, label %.thread, label %32

._crit_edge.thread:                               ; preds = %12
  tail call void @dictReleaseIterator(ptr noundef %15) #30
  %25 = getelementptr inbounds nuw i8, ptr %0, i64 296
  %26 = load i64, ptr %25, align 8, !tbaa !164
  %.not3449 = icmp sgt i64 %5, %26
  br i1 %.not3449, label %.thread, label %.thread41.critedge

.thread:                                          ; preds = %._crit_edge.thread, %._crit_edge
  tail call void (i32, ptr, ptr, ptr, ...) @sentinelEvent(i32 noundef 3, ptr noundef nonnull @.str.437, ptr noundef nonnull %0, ptr noundef nonnull @.str.54)
  tail call void (i32, ptr, ptr, ptr, ...) @sentinelEvent(i32 noundef 3, ptr noundef nonnull @.str.438, ptr noundef nonnull %0, ptr noundef nonnull @.str.54)
  %27 = getelementptr inbounds nuw i8, ptr %0, i64 272
  store i32 6, ptr %27, align 8, !tbaa !169
  %28 = tail call i64 @mstime() #30
  store i64 %28, ptr %3, align 8, !tbaa !243
  %29 = load ptr, ptr %13, align 8, !tbaa !18
  %30 = tail call ptr @dictGetIterator(ptr noundef %29) #30
  %31 = tail call ptr @dictNext(ptr noundef %30) #30
  %.not3544 = icmp eq ptr %31, null
  br i1 %.not3544, label %._crit_edge47, label %.lr.ph46

32:                                               ; preds = %._crit_edge
  %33 = icmp eq i32 %.1, 0
  br i1 %33, label %.thread41.critedge, label %.thread41

.lr.ph46:                                         ; preds = %.thread, %52
  %34 = phi ptr [ %53, %52 ], [ %31, %.thread ]
  %35 = tail call ptr @dictGetVal(ptr noundef nonnull %34) #30
  %36 = load i32, ptr %35, align 8, !tbaa !34
  %37 = and i32 %36, 1408
  %.not36 = icmp eq i32 %37, 0
  br i1 %.not36, label %38, label %52, !llvm.loop !292

38:                                               ; preds = %.lr.ph46
  %39 = getelementptr inbounds nuw i8, ptr %35, i64 40
  %40 = load ptr, ptr %39, align 8, !tbaa !19
  %41 = getelementptr inbounds nuw i8, ptr %40, i64 4
  %42 = load i32, ptr %41, align 4, !tbaa !117
  %.not37 = icmp eq i32 %42, 0
  br i1 %.not37, label %43, label %52, !llvm.loop !292

43:                                               ; preds = %38
  %44 = load ptr, ptr %6, align 8, !tbaa !36
  %45 = getelementptr inbounds nuw i8, ptr %44, i64 32
  %46 = load ptr, ptr %45, align 8, !tbaa !29
  %47 = tail call i32 @sentinelSendSlaveOf(ptr noundef nonnull %35, ptr noundef %46)
  %48 = icmp eq i32 %47, 0
  br i1 %48, label %49, label %52

49:                                               ; preds = %43
  tail call void (i32, ptr, ptr, ptr, ...) @sentinelEvent(i32 noundef 2, ptr noundef nonnull @.str.439, ptr noundef nonnull %35, ptr noundef nonnull @.str.54)
  %50 = load i32, ptr %35, align 8, !tbaa !34
  %51 = or i32 %50, 256
  store i32 %51, ptr %35, align 8, !tbaa !34
  br label %52

52:                                               ; preds = %43, %49, %38, %.lr.ph46
  %53 = tail call ptr @dictNext(ptr noundef %30) #30
  %.not35 = icmp eq ptr %53, null
  br i1 %.not35, label %._crit_edge47, label %.lr.ph46

._crit_edge47:                                    ; preds = %52, %.thread
  tail call void @dictReleaseIterator(ptr noundef %30) #30
  br label %.thread41

.thread41.critedge:                               ; preds = %._crit_edge.thread, %32
  tail call void (i32, ptr, ptr, ptr, ...) @sentinelEvent(i32 noundef 3, ptr noundef nonnull @.str.438, ptr noundef nonnull %0, ptr noundef nonnull @.str.54)
  %54 = getelementptr inbounds nuw i8, ptr %0, i64 272
  store i32 6, ptr %54, align 8, !tbaa !169
  %55 = tail call i64 @mstime() #30
  store i64 %55, ptr %3, align 8, !tbaa !243
  br label %.thread41

.thread41:                                        ; preds = %.thread41.critedge, %32, %._crit_edge47, %1, %9
  ret void
}